; ModuleID = 'source-C-CXX/9/1671.c'
source_filename = "source-C-CXX/9/1671.c"
target datalayout = "e-m:e-p270:32:32-p271:32:32-p272:64:64-i64:64-f80:128-n8:16:32:64-S128"
target triple = "x86_64-pc-linux-gnu"

@.str = private unnamed_addr constant [3 x i8] c"%d\00", align 1

; Function Attrs: nofree nounwind sspstrong uwtable
define dso_local void @main() local_unnamed_addr #0 {
  %1 = alloca i32, align 4
  %2 = alloca [25 x i32], align 16
  %3 = alloca [25 x i32], align 16
  %4 = bitcast i32* %1 to i8*
  call void @llvm.lifetime.start.p0i8(i64 4, i8* nonnull %4) #5
  %5 = bitcast [25 x i32]* %2 to i8*
  call void @llvm.lifetime.start.p0i8(i64 100, i8* nonnull %5) #5
  call void @llvm.memset.p0i8.i64(i8* noundef nonnull align 16 dereferenceable(100) %5, i8 0, i64 100, i1 false)
  %6 = bitcast [25 x i32]* %3 to i8*
  call void @llvm.lifetime.start.p0i8(i64 100, i8* nonnull %6) #5
  call void @llvm.memset.p0i8.i64(i8* noundef nonnull align 16 dereferenceable(100) %6, i8 0, i64 100, i1 false)
  %7 = getelementptr inbounds [25 x i32], [25 x i32]* %3, i64 0, i64 0
  store i32 1, i32* %7, align 16
  %8 = call i32 (i8*, ...) @__isoc99_scanf(i8* getelementptr inbounds ([3 x i8], [3 x i8]* @.str, i64 0, i64 0), i32* nonnull %1)
  %9 = load i32, i32* %1, align 4, !tbaa !5
  %10 = icmp sgt i32 %9, 0
  br i1 %10, label %11, label %165

11:                                               ; preds = %0, %11
  %12 = phi i64 [ %15, %11 ], [ 0, %0 ]
  %13 = getelementptr inbounds [25 x i32], [25 x i32]* %2, i64 0, i64 %12
  %14 = call i32 (i8*, ...) @__isoc99_scanf(i8* getelementptr inbounds ([3 x i8], [3 x i8]* @.str, i64 0, i64 0), i32* nonnull %13)
  %15 = add nuw nsw i64 %12, 1
  %16 = load i32, i32* %1, align 4, !tbaa !5
  %17 = sext i32 %16 to i64
  %18 = icmp slt i64 %15, %17
  br i1 %18, label %11, label %19, !llvm.loop !9

19:                                               ; preds = %11
  %20 = icmp sgt i32 %16, 1
  br i1 %20, label %21, label %75

21:                                               ; preds = %19
  %22 = zext i32 %16 to i64
  %23 = add nsw i32 %16, -2
  %24 = zext i32 %23 to i64
  br label %25

25:                                               ; preds = %21, %69
  %26 = phi i32 [ 0, %21 ], [ %72, %69 ]
  %27 = phi i64 [ %24, %21 ], [ %70, %69 ]
  %28 = phi i64 [ %22, %21 ], [ %29, %69 ]
  %29 = add nsw i64 %28, -1
  %30 = getelementptr inbounds [25 x i32], [25 x i32]* %3, i64 0, i64 %27
  %31 = add nuw nsw i64 %27, 1
  %32 = icmp slt i64 %31, %22
  br i1 %32, label %33, label %69

33:                                               ; preds = %25
  %34 = getelementptr inbounds [25 x i32], [25 x i32]* %2, i64 0, i64 %27
  %35 = load i32, i32* %34, align 4, !tbaa !5
  %36 = and i32 %26, 1
  %37 = icmp eq i32 %36, 0
  br i1 %37, label %38, label %49

38:                                               ; preds = %33
  %39 = getelementptr inbounds [25 x i32], [25 x i32]* %2, i64 0, i64 %29
  %40 = load i32, i32* %39, align 4, !tbaa !5
  %41 = icmp slt i32 %35, %40
  br i1 %41, label %49, label %42

42:                                               ; preds = %38
  %43 = load i32, i32* %30, align 4, !tbaa !5
  %44 = getelementptr inbounds [25 x i32], [25 x i32]* %3, i64 0, i64 %29
  %45 = load i32, i32* %44, align 4, !tbaa !5
  %46 = icmp sgt i32 %43, %45
  br i1 %46, label %49, label %47

47:                                               ; preds = %42
  %48 = add nsw i32 %45, 1
  store i32 %48, i32* %30, align 4, !tbaa !5
  br label %49

49:                                               ; preds = %33, %47, %42, %38
  %50 = phi i64 [ %29, %33 ], [ %28, %47 ], [ %28, %42 ], [ %28, %38 ]
  %51 = icmp eq i32 %26, 0
  br i1 %51, label %69, label %52

52:                                               ; preds = %49, %176
  %53 = phi i64 [ %177, %176 ], [ %50, %49 ]
  %54 = getelementptr inbounds [25 x i32], [25 x i32]* %2, i64 0, i64 %53
  %55 = load i32, i32* %54, align 4, !tbaa !5
  %56 = icmp slt i32 %35, %55
  br i1 %56, label %64, label %57

57:                                               ; preds = %52
  %58 = load i32, i32* %30, align 4, !tbaa !5
  %59 = getelementptr inbounds [25 x i32], [25 x i32]* %3, i64 0, i64 %53
  %60 = load i32, i32* %59, align 4, !tbaa !5
  %61 = icmp sgt i32 %58, %60
  br i1 %61, label %64, label %62

62:                                               ; preds = %57
  %63 = add nsw i32 %60, 1
  store i32 %63, i32* %30, align 4, !tbaa !5
  br label %64

64:                                               ; preds = %52, %57, %62
  %65 = add nsw i64 %53, 1
  %66 = getelementptr inbounds [25 x i32], [25 x i32]* %2, i64 0, i64 %65
  %67 = load i32, i32* %66, align 4, !tbaa !5
  %68 = icmp slt i32 %35, %67
  br i1 %68, label %176, label %169

69:                                               ; preds = %49, %176, %25
  %70 = add nsw i64 %27, -1
  %71 = icmp sgt i64 %27, 0
  %72 = add i32 %26, 1
  br i1 %71, label %25, label %73, !llvm.loop !11

73:                                               ; preds = %69
  %74 = load i32, i32* %7, align 16, !tbaa !5
  br label %75

75:                                               ; preds = %73, %19
  %76 = phi i32 [ %74, %73 ], [ 1, %19 ]
  %77 = icmp sgt i32 %16, 0
  br i1 %77, label %78, label %165

78:                                               ; preds = %75
  %79 = zext i32 %16 to i64
  %80 = icmp eq i32 %16, 1
  br i1 %80, label %165, label %81, !llvm.loop !12

81:                                               ; preds = %78
  %82 = add nsw i64 %79, -1
  %83 = icmp ult i64 %82, 8
  br i1 %83, label %153, label %84

84:                                               ; preds = %81
  %85 = and i64 %82, -8
  %86 = or i64 %85, 1
  %87 = insertelement <4 x i32> poison, i32 %76, i32 0
  %88 = shufflevector <4 x i32> %87, <4 x i32> poison, <4 x i32> zeroinitializer
  %89 = add nsw i64 %85, -8
  %90 = lshr exact i64 %89, 3
  %91 = add nuw nsw i64 %90, 1
  %92 = and i64 %91, 1
  %93 = icmp eq i64 %89, 0
  br i1 %93, label %128, label %94

94:                                               ; preds = %84
  %95 = and i64 %91, 4611686018427387902
  br label %96

96:                                               ; preds = %96, %94
  %97 = phi i64 [ 0, %94 ], [ %123, %96 ]
  %98 = phi <4 x i32> [ %88, %94 ], [ %121, %96 ]
  %99 = phi <4 x i32> [ %88, %94 ], [ %122, %96 ]
  %100 = phi i64 [ %95, %94 ], [ %124, %96 ]
  %101 = or i64 %97, 1
  %102 = getelementptr inbounds [25 x i32], [25 x i32]* %3, i64 0, i64 %101
  %103 = bitcast i32* %102 to <4 x i32>*
  %104 = load <4 x i32>, <4 x i32>* %103, align 4, !tbaa !5
  %105 = getelementptr inbounds i32, i32* %102, i64 4
  %106 = bitcast i32* %105 to <4 x i32>*
  %107 = load <4 x i32>, <4 x i32>* %106, align 4, !tbaa !5
  %108 = icmp slt <4 x i32> %98, %104
  %109 = icmp slt <4 x i32> %99, %107
  %110 = select <4 x i1> %108, <4 x i32> %104, <4 x i32> %98
  %111 = select <4 x i1> %109, <4 x i32> %107, <4 x i32> %99
  %112 = or i64 %97, 9
  %113 = getelementptr inbounds [25 x i32], [25 x i32]* %3, i64 0, i64 %112
  %114 = bitcast i32* %113 to <4 x i32>*
  %115 = load <4 x i32>, <4 x i32>* %114, align 4, !tbaa !5
  %116 = getelementptr inbounds i32, i32* %113, i64 4
  %117 = bitcast i32* %116 to <4 x i32>*
  %118 = load <4 x i32>, <4 x i32>* %117, align 4, !tbaa !5
  %119 = icmp slt <4 x i32> %110, %115
  %120 = icmp slt <4 x i32> %111, %118
  %121 = select <4 x i1> %119, <4 x i32> %115, <4 x i32> %110
  %122 = select <4 x i1> %120, <4 x i32> %118, <4 x i32> %111
  %123 = add nuw i64 %97, 16
  %124 = add i64 %100, -2
  %125 = icmp eq i64 %124, 0
  br i1 %125, label %126, label %96, !llvm.loop !13

126:                                              ; preds = %96
  %127 = or i64 %123, 1
  br label %128

128:                                              ; preds = %126, %84
  %129 = phi <4 x i32> [ undef, %84 ], [ %121, %126 ]
  %130 = phi <4 x i32> [ undef, %84 ], [ %122, %126 ]
  %131 = phi i64 [ 1, %84 ], [ %127, %126 ]
  %132 = phi <4 x i32> [ %88, %84 ], [ %121, %126 ]
  %133 = phi <4 x i32> [ %88, %84 ], [ %122, %126 ]
  %134 = icmp eq i64 %92, 0
  br i1 %134, label %146, label %135

135:                                              ; preds = %128
  %136 = getelementptr inbounds [25 x i32], [25 x i32]* %3, i64 0, i64 %131
  %137 = bitcast i32* %136 to <4 x i32>*
  %138 = load <4 x i32>, <4 x i32>* %137, align 4, !tbaa !5
  %139 = getelementptr inbounds i32, i32* %136, i64 4
  %140 = bitcast i32* %139 to <4 x i32>*
  %141 = load <4 x i32>, <4 x i32>* %140, align 4, !tbaa !5
  %142 = icmp slt <4 x i32> %133, %141
  %143 = select <4 x i1> %142, <4 x i32> %141, <4 x i32> %133
  %144 = icmp slt <4 x i32> %132, %138
  %145 = select <4 x i1> %144, <4 x i32> %138, <4 x i32> %132
  br label %146

146:                                              ; preds = %128, %135
  %147 = phi <4 x i32> [ %129, %128 ], [ %145, %135 ]
  %148 = phi <4 x i32> [ %130, %128 ], [ %143, %135 ]
  %149 = icmp sgt <4 x i32> %147, %148
  %150 = select <4 x i1> %149, <4 x i32> %147, <4 x i32> %148
  %151 = call i32 @llvm.vector.reduce.smax.v4i32(<4 x i32> %150)
  %152 = icmp eq i64 %82, %85
  br i1 %152, label %165, label %153

153:                                              ; preds = %81, %146
  %154 = phi i64 [ 1, %81 ], [ %86, %146 ]
  %155 = phi i32 [ %76, %81 ], [ %151, %146 ]
  br label %156

156:                                              ; preds = %153, %156
  %157 = phi i64 [ %163, %156 ], [ %154, %153 ]
  %158 = phi i32 [ %162, %156 ], [ %155, %153 ]
  %159 = getelementptr inbounds [25 x i32], [25 x i32]* %3, i64 0, i64 %157
  %160 = load i32, i32* %159, align 4, !tbaa !5
  %161 = icmp slt i32 %158, %160
  %162 = select i1 %161, i32 %160, i32 %158
  %163 = add nuw nsw i64 %157, 1
  %164 = icmp eq i64 %163, %79
  br i1 %164, label %165, label %156, !llvm.loop !15

165:                                              ; preds = %156, %78, %146, %0, %75
  %166 = phi i32 [ %76, %75 ], [ 1, %0 ], [ %76, %78 ], [ %151, %146 ], [ %162, %156 ]
  %167 = add nsw i32 %166, 1
  %168 = call i32 (i8*, ...) @printf(i8* nonnull dereferenceable(1) getelementptr inbounds ([3 x i8], [3 x i8]* @.str, i64 0, i64 0), i32 %167)
  call void @llvm.lifetime.end.p0i8(i64 100, i8* nonnull %6) #5
  call void @llvm.lifetime.end.p0i8(i64 100, i8* nonnull %5) #5
  call void @llvm.lifetime.end.p0i8(i64 4, i8* nonnull %4) #5
  ret void

169:                                              ; preds = %64
  %170 = load i32, i32* %30, align 4, !tbaa !5
  %171 = getelementptr inbounds [25 x i32], [25 x i32]* %3, i64 0, i64 %65
  %172 = load i32, i32* %171, align 4, !tbaa !5
  %173 = icmp sgt i32 %170, %172
  br i1 %173, label %176, label %174

174:                                              ; preds = %169
  %175 = add nsw i32 %172, 1
  store i32 %175, i32* %30, align 4, !tbaa !5
  br label %176

176:                                              ; preds = %174, %169, %64
  %177 = add nsw i64 %53, 2
  %178 = trunc i64 %177 to i32
  %179 = icmp eq i32 %16, %178
  br i1 %179, label %69, label %52, !llvm.loop !17
}

; Function Attrs: argmemonly mustprogress nofree nosync nounwind willreturn
declare void @llvm.lifetime.start.p0i8(i64 immarg, i8* nocapture) #1

; Function Attrs: argmemonly mustprogress nofree nounwind willreturn writeonly
declare void @llvm.memset.p0i8.i64(i8* nocapture writeonly, i8, i64, i1 immarg) #2

; Function Attrs: nofree nounwind
declare noundef i32 @__isoc99_scanf(i8* nocapture noundef readonly, ...) local_unnamed_addr #3

; Function Attrs: nofree nounwind
declare noundef i32 @printf(i8* nocapture noundef readonly, ...) local_unnamed_addr #3

; Function Attrs: argmemonly mustprogress nofree nosync nounwind willreturn
declare void @llvm.lifetime.end.p0i8(i64 immarg, i8* nocapture) #1

; Function Attrs: nofree nosync nounwind readnone willreturn
declare i32 @llvm.vector.reduce.smax.v4i32(<4 x i32>) #4


!llvm.module.flags = !{!0, !1, !2, !3}
!llvm.ident = !{!4}

!0 = !{i32 1, !"wchar_size", i32 4}
!1 = !{i32 7, !"PIC Level", i32 2}
!2 = !{i32 7, !"PIE Level", i32 2}
!3 = !{i32 7, !"uwtable", i32 1}
!4 = !{!"clang version 13.0.0"}
!5 = !{!6, !6, i64 0}
!6 = !{!"int", !7, i64 0}
!7 = !{!"omnipotent char", !8, i64 0}
!8 = !{!"Simple C/C++ TBAA"}
!9 = distinct !{!9, !10}
!10 = !{!"llvm.loop.mustprogress"}
!11 = distinct !{!11, !10}
!12 = distinct !{!12, !10}
!13 = distinct !{!13, !10, !14}
!14 = !{!"llvm.loop.isvectorized", i32 1}
!15 = distinct !{!15, !10, !16, !14}
!16 = !{!"llvm.loop.unroll.runtime.disable"}
!17 = distinct !{!17, !10}
